target datalayout = "e-m:e-p270:32:32-p271:32:32-p272:64:64-i64:64-i128:128-f80:128-n8:16:32:64-S128"
target triple = "x86_64-pc-linux-gnu"

%struct.rb_data_type_struct = type { ptr, %struct.anon.5, ptr, ptr, i64 }
%struct.anon.5 = type { ptr, ptr, ptr, ptr, [1 x ptr] }

@rb_eArgError = external global i64, align 8
@sym_invalid_byte_sequence = internal global i64 0, align 8
@sym_undefined_conversion = internal global i64 0, align 8
@sym_source_buffer_empty = internal global i64 0, align 8
@sym_finished = internal global i64 0, align 8
@sym_incomplete_input = internal global i64 0, align 8
@econv_data_type = internal constant %struct.rb_data_type_struct { ptr @.str.110, %struct.anon.5 { ptr null, ptr @econv_free, ptr @econv_memsize, ptr null, [1 x ptr] zeroinitializer }, ptr null, ptr null, i64 1 }, align 8
@rb_eTypeError = external global i64, align 8
@.str.119 = private unnamed_addr constant [33 x i8] c"uninitialized encoding converter\00", align 1
@.str.126 = private unnamed_addr constant [27 x i8] c"converter already finished\00", align 1
@.str.127 = private unnamed_addr constant [45 x i8] c"unexpected result of econv_primitive_convert\00", align 1

; Function Attrs: inlinehint nounwind sspstrong willreturn memory(none) uwtable
define internal i64 @RB_INT2FIX(i64 noundef %0) #10 {
  %2 = alloca i64, align 8
  %3 = alloca i64, align 8
  %4 = alloca i64, align 8
  %5 = alloca i64, align 8
  %6 = alloca i64, align 8
  %7 = alloca i64, align 8
  store i64 %0, ptr %2, align 8, !tbaa !12
  call void @llvm.lifetime.start.p0(i64 8, ptr %3) #25
  %8 = load i64, ptr %2, align 8, !tbaa !12
  store i64 %8, ptr %3, align 8, !tbaa !12
  call void @llvm.lifetime.start.p0(i64 8, ptr %4) #25
  %9 = load i64, ptr %3, align 8, !tbaa !12
  %10 = shl i64 %9, 1
  %11 = add i64 %10, 1
  store i64 %11, ptr %4, align 8, !tbaa !12
  call void @llvm.lifetime.start.p0(i64 8, ptr %5) #25
  %12 = load i64, ptr %4, align 8, !tbaa !12
  store i64 %12, ptr %5, align 8, !tbaa !12
  call void @llvm.lifetime.start.p0(i64 8, ptr %6) #25
  %13 = load i64, ptr %5, align 8, !tbaa !12
  store i64 %13, ptr %6, align 8, !tbaa !12
  call void @llvm.lifetime.start.p0(i64 8, ptr %7) #25
  %14 = load i64, ptr %6, align 8, !tbaa !12
  store i64 %14, ptr %7, align 8, !tbaa !12
  %15 = load i64, ptr %7, align 8, !tbaa !12
  call void @llvm.lifetime.end.p0(i64 8, ptr %7) #25
  call void @llvm.lifetime.end.p0(i64 8, ptr %6) #25
  call void @llvm.lifetime.end.p0(i64 8, ptr %5) #25
  call void @llvm.lifetime.end.p0(i64 8, ptr %4) #25
  call void @llvm.lifetime.end.p0(i64 8, ptr %3) #25
  ret i64 %15
}

; Function Attrs: inlinehint nounwind sspstrong uwtable
define internal i64 @rb_int2num_inline(i32 noundef %0) #7 {
  %2 = alloca i64, align 8
  %3 = alloca i32, align 4
  store i32 %0, ptr %3, align 4, !tbaa !29
  %4 = load i32, ptr %3, align 4, !tbaa !29
  %5 = sext i32 %4 to i64
  %6 = icmp slt i64 %5, 4611686018427387904
  br i1 %6, label %7, label %15

7:                                                ; preds = %1
  %8 = load i32, ptr %3, align 4, !tbaa !29
  %9 = sext i32 %8 to i64
  %10 = icmp sge i64 %9, -4611686018427387904
  br i1 %10, label %11, label %15

11:                                               ; preds = %7
  %12 = load i32, ptr %3, align 4, !tbaa !29
  %13 = sext i32 %12 to i64
  %14 = call i64 @RB_INT2FIX(i64 noundef %13) #31
  store i64 %14, ptr %2, align 8
  br label %19

15:                                               ; preds = %7, %1
  %16 = load i32, ptr %3, align 4, !tbaa !29
  %17 = sext i32 %16 to i64
  %18 = call i64 @rb_int2big(i64 noundef %17)
  store i64 %18, ptr %2, align 8
  br label %19

19:                                               ; preds = %15, %11
  %20 = load i64, ptr %2, align 8
  ret i64 %20
}

; Function Attrs: nounwind sspstrong uwtable
define internal ptr @check_econv(i64 noundef %0) #0 {
  %2 = alloca i64, align 8
  %3 = alloca ptr, align 8
  store i64 %0, ptr %2, align 8, !tbaa !12
  call void @llvm.lifetime.start.p0(i64 8, ptr %3) #25
  %4 = load i64, ptr %2, align 8, !tbaa !12
  %5 = call ptr @rb_check_typeddata(i64 noundef %4, ptr noundef @econv_data_type)
  store ptr %5, ptr %3, align 8, !tbaa !30
  %6 = load ptr, ptr %3, align 8, !tbaa !30
  %7 = icmp ne ptr %6, null
  br i1 %7, label %10, label %8

8:                                                ; preds = %1
  %9 = load i64, ptr @rb_eTypeError, align 8, !tbaa !12
  call void (i64, ptr, ...) @rb_raise(i64 noundef %9, ptr noundef @.str.119) #26
  unreachable

10:                                               ; preds = %1
  %11 = load ptr, ptr %3, align 8, !tbaa !30
  call void @llvm.lifetime.end.p0(i64 8, ptr %3) #25
  ret ptr %11
}

; Function Attrs: nounwind sspstrong uwtable
define internal i64 @econv_convert(i64 noundef %0, i64 noundef %1) #0 {
  %3 = alloca i64, align 8
  %4 = alloca i64, align 8
  %5 = alloca i64, align 8
  %6 = alloca i64, align 8
  %7 = alloca [5 x i64], align 16
  %8 = alloca i32, align 4
  %9 = alloca ptr, align 8
  %10 = alloca i64, align 8
  store i64 %0, ptr %3, align 8, !tbaa !12
  store i64 %1, ptr %4, align 8, !tbaa !12
  call void @llvm.lifetime.start.p0(i64 8, ptr %5) #25
  call void @llvm.lifetime.start.p0(i64 8, ptr %6) #25
  call void @llvm.lifetime.start.p0(i64 40, ptr %7) #25
  call void @llvm.lifetime.start.p0(i64 4, ptr %8) #25
  call void @llvm.lifetime.start.p0(i64 8, ptr %9) #25
  %11 = load i64, ptr %3, align 8, !tbaa !12
  %12 = call ptr @check_econv(i64 noundef %11)
  store ptr %12, ptr %9, align 8, !tbaa !30
  %13 = call i64 @rb_string_value(ptr noundef %4)
  %14 = call i64 @rb_str_new_static(ptr noundef null, i64 noundef 0)
  store i64 %14, ptr %6, align 8, !tbaa !12
  %15 = load i64, ptr %4, align 8, !tbaa !12
  %16 = call i64 @rb_str_dup(i64 noundef %15)
  %17 = getelementptr [5 x i64], ptr %7, i64 0, i64 0
  store i64 %16, ptr %17, align 16, !tbaa !12
  %18 = load i64, ptr %6, align 8, !tbaa !12
  %19 = getelementptr [5 x i64], ptr %7, i64 0, i64 1
  store i64 %18, ptr %19, align 8, !tbaa !12
  %20 = getelementptr [5 x i64], ptr %7, i64 0, i64 2
  store i64 4, ptr %20, align 16, !tbaa !12
  %21 = getelementptr [5 x i64], ptr %7, i64 0, i64 3
  store i64 4, ptr %21, align 8, !tbaa !12
  %22 = call i64 @rb_int2num_inline(i32 noundef 131072)
  %23 = getelementptr [5 x i64], ptr %7, i64 0, i64 4
  store i64 %22, ptr %23, align 16, !tbaa !12
  store i32 5, ptr %8, align 4, !tbaa !29
  %24 = load i32, ptr %8, align 4, !tbaa !29
  %25 = getelementptr inbounds [5 x i64], ptr %7, i64 0, i64 0
  %26 = load i64, ptr %3, align 8, !tbaa !12
  %27 = call i64 @econv_primitive_convert(i32 noundef %24, ptr noundef %25, i64 noundef %26)
  store i64 %27, ptr %5, align 8, !tbaa !12
  %28 = load i64, ptr %5, align 8, !tbaa !12
  %29 = load i64, ptr @sym_invalid_byte_sequence, align 8, !tbaa !12
  %30 = icmp eq i64 %28, %29
  br i1 %30, label %39, label %31

31:                                               ; preds = %2
  %32 = load i64, ptr %5, align 8, !tbaa !12
  %33 = load i64, ptr @sym_undefined_conversion, align 8, !tbaa !12
  %34 = icmp eq i64 %32, %33
  br i1 %34, label %39, label %35

35:                                               ; preds = %31
  %36 = load i64, ptr %5, align 8, !tbaa !12
  %37 = load i64, ptr @sym_incomplete_input, align 8, !tbaa !12
  %38 = icmp eq i64 %36, %37
  br i1 %38, label %39, label %43

39:                                               ; preds = %35, %31, %2
  call void @llvm.lifetime.start.p0(i64 8, ptr %10) #25
  %40 = load ptr, ptr %9, align 8, !tbaa !30
  %41 = call i64 @make_econv_exception(ptr noundef %40)
  store i64 %41, ptr %10, align 8, !tbaa !12
  %42 = load i64, ptr %10, align 8, !tbaa !12
  call void @rb_exc_raise(i64 noundef %42) #26
  unreachable

43:                                               ; preds = %35
  %44 = load i64, ptr %5, align 8, !tbaa !12
  %45 = load i64, ptr @sym_finished, align 8, !tbaa !12
  %46 = icmp eq i64 %44, %45
  br i1 %46, label %47, label %49

47:                                               ; preds = %43
  %48 = load i64, ptr @rb_eArgError, align 8, !tbaa !12
  call void (i64, ptr, ...) @rb_raise(i64 noundef %48, ptr noundef @.str.126) #26
  unreachable

49:                                               ; preds = %43
  %50 = load i64, ptr %5, align 8, !tbaa !12
  %51 = load i64, ptr @sym_source_buffer_empty, align 8, !tbaa !12
  %52 = icmp ne i64 %50, %51
  br i1 %52, label %53, label %54

53:                                               ; preds = %49
  call void (ptr, ...) @rb_bug(ptr noundef @.str.127) #33
  unreachable

54:                                               ; preds = %49
  %55 = load i64, ptr %6, align 8, !tbaa !12
  call void @llvm.lifetime.end.p0(i64 8, ptr %9) #25
  call void @llvm.lifetime.end.p0(i64 4, ptr %8) #25
  call void @llvm.lifetime.end.p0(i64 40, ptr %7) #25
  call void @llvm.lifetime.end.p0(i64 8, ptr %6) #25
  call void @llvm.lifetime.end.p0(i64 8, ptr %5) #25
  ret i64 %55
}