; Function Attrs: nounwind sspstrong uwtable
define internal i64 @econv_convert(i64 noundef %0, i64 noundef %1) #0 {
  %3 = alloca i64, align 8
  %4 = alloca [5 x i64], align 16
  store i64 %1, ptr %3, align 8, !tbaa !22
  call void @llvm.lifetime.start.p0(i64 40, ptr nonnull %4) #22
  %5 = tail call ptr @rb_check_typeddata(i64 noundef %0, ptr noundef nonnull @econv_data_type) #22
  %.not.i = icmp eq ptr %5, null
  br i1 %.not.i, label %6, label %check_econv.exit

6:                                                ; preds = %2
  %7 = load i64, ptr @rb_eTypeError, align 8, !tbaa !22
  tail call void (i64, ptr, ...) @rb_raise(i64 noundef %7, ptr noundef nonnull @.str.119) #23
  unreachable

check_econv.exit:                                 ; preds = %2
  %8 = call i64 @rb_string_value(ptr noundef nonnull %3) #22
  %9 = call i64 @rb_str_new_static(ptr noundef null, i64 noundef 0) #22
  %10 = load i64, ptr %3, align 8, !tbaa !22
  %11 = call i64 @rb_str_dup(i64 noundef %10) #22
  store i64 %11, ptr %4, align 16, !tbaa !22
  %12 = getelementptr inbounds nuw i8, ptr %4, i64 8
  store i64 %9, ptr %12, align 8, !tbaa !22
  %13 = getelementptr inbounds nuw i8, ptr %4, i64 16
  store i64 4, ptr %13, align 16, !tbaa !22
  %14 = getelementptr inbounds nuw i8, ptr %4, i64 24
  store i64 4, ptr %14, align 8, !tbaa !22
  %15 = getelementptr inbounds nuw i8, ptr %4, i64 32
  store i64 262145, ptr %15, align 16, !tbaa !22
  %16 = call i64 @econv_primitive_convert(i32 noundef 5, ptr noundef nonnull %4, i64 noundef %0)
  %17 = load i64, ptr @sym_invalid_byte_sequence, align 8, !tbaa !22
  %18 = icmp eq i64 %16, %17
  %19 = load i64, ptr @sym_undefined_conversion, align 8
  %20 = icmp eq i64 %16, %19
  %or.cond = select i1 %18, i1 true, i1 %20
  %21 = load i64, ptr @sym_incomplete_input, align 8
  %22 = icmp eq i64 %16, %21
  %or.cond13 = select i1 %or.cond, i1 true, i1 %22
  br i1 %or.cond13, label %23, label %25

23:                                               ; preds = %check_econv.exit
  %24 = call fastcc i64 @make_econv_exception(ptr noundef nonnull %5)
  call void @rb_exc_raise(i64 noundef %24) #23
  unreachable

25:                                               ; preds = %check_econv.exit
  %26 = load i64, ptr @sym_finished, align 8, !tbaa !22
  %27 = icmp eq i64 %16, %26
  br i1 %27, label %28, label %30

28:                                               ; preds = %25
  %29 = load i64, ptr @rb_eArgError, align 8, !tbaa !22
  call void (i64, ptr, ...) @rb_raise(i64 noundef %29, ptr noundef nonnull @.str.126) #23
  unreachable

30:                                               ; preds = %25
  %31 = load i64, ptr @sym_source_buffer_empty, align 8, !tbaa !22
  %.not = icmp eq i64 %16, %31
  br i1 %.not, label %33, label %32

32:                                               ; preds = %30
  call void (ptr, ...) @rb_bug(ptr noundef nonnull @.str.127) #28
  unreachable

33:                                               ; preds = %30
  call void @llvm.lifetime.end.p0(i64 40, ptr nonnull %4) #22
  ret i64 %9
}